target datalayout = "e-m:e-p270:32:32-p271:32:32-p272:64:64-i64:64-i128:128-f80:128-n8:16:32:64-S128"
target triple = "x86_64-pc-linux-gnu"

; Function Attrs: nounwind uwtable
define dso_local ptr @build_attnums_array(ptr noundef %0, i32 noundef %1, ptr noundef %2) #0 {
  %4 = alloca ptr, align 8
  %5 = alloca i32, align 4
  %6 = alloca ptr, align 8
  %7 = alloca i32, align 4
  %8 = alloca i32, align 4
  %9 = alloca ptr, align 8
  %10 = alloca i32, align 4
  %11 = alloca i32, align 4
  store ptr %0, ptr %4, align 8
  store i32 %1, ptr %5, align 4
  store ptr %2, ptr %6, align 8
  call void @llvm.lifetime.start.p0(i64 4, ptr %7) #8
  call void @llvm.lifetime.start.p0(i64 4, ptr %8) #8
  call void @llvm.lifetime.start.p0(i64 8, ptr %9) #8
  call void @llvm.lifetime.start.p0(i64 4, ptr %10) #8
  %12 = load ptr, ptr %4, align 8
  %13 = call i32 @bms_num_members(ptr noundef %12)
  store i32 %13, ptr %10, align 4
  %14 = load ptr, ptr %6, align 8
  %15 = icmp ne ptr %14, null
  br i1 %15, label %16, label %19

16:                                               ; preds = %3
  %17 = load i32, ptr %10, align 4
  %18 = load ptr, ptr %6, align 8
  store i32 %17, ptr %18, align 4
  br label %19

19:                                               ; preds = %16, %3
  %20 = load i32, ptr %10, align 4
  %21 = sext i32 %20 to i64
  %22 = mul i64 2, %21
  %23 = call ptr @palloc(i64 noundef %22)
  store ptr %23, ptr %9, align 8
  store i32 0, ptr %7, align 4
  store i32 -1, ptr %8, align 4
  br label %24

24:                                               ; preds = %29, %19
  %25 = load ptr, ptr %4, align 8
  %26 = load i32, ptr %8, align 4
  %27 = call i32 @bms_next_member(ptr noundef %25, i32 noundef %26)
  store i32 %27, ptr %8, align 4
  %28 = icmp sge i32 %27, 0
  br i1 %28, label %29, label %40

29:                                               ; preds = %24
  call void @llvm.lifetime.start.p0(i64 4, ptr %11) #8
  %30 = load i32, ptr %8, align 4
  %31 = load i32, ptr %5, align 4
  %32 = sub i32 %30, %31
  store i32 %32, ptr %11, align 4
  %33 = load i32, ptr %11, align 4
  %34 = trunc i32 %33 to i16
  %35 = load ptr, ptr %9, align 8
  %36 = load i32, ptr %7, align 4
  %37 = add i32 %36, 1
  store i32 %37, ptr %7, align 4
  %38 = sext i32 %36 to i64
  %39 = getelementptr inbounds i16, ptr %35, i64 %38
  store i16 %34, ptr %39, align 2
  call void @llvm.lifetime.end.p0(i64 4, ptr %11) #8
  br label %24, !llvm.loop !37

40:                                               ; preds = %24
  %41 = load ptr, ptr %9, align 8
  call void @llvm.lifetime.end.p0(i64 4, ptr %10) #8
  call void @llvm.lifetime.end.p0(i64 8, ptr %9) #8
  call void @llvm.lifetime.end.p0(i64 4, ptr %8) #8
  call void @llvm.lifetime.end.p0(i64 4, ptr %7) #8
  ret ptr %41
}