; Function Attrs: nounwind uwtable
define dso_local ptr @build_attnums_array(ptr noundef %0, i32 noundef %1, ptr noundef writeonly captures(address_is_null) %2) local_unnamed_addr #0 {
  %4 = tail call i32 @bms_num_members(ptr noundef %0) #10
  %.not = icmp eq ptr %2, null
  br i1 %.not, label %6, label %5

5:                                                ; preds = %3
  store i32 %4, ptr %2, align 4
  br label %6

6:                                                ; preds = %5, %3
  %7 = sext i32 %4 to i64
  %8 = shl nsw i64 %7, 1
  %9 = tail call ptr @palloc(i64 noundef %8) #10
  %10 = tail call i32 @bms_next_member(ptr noundef %0, i32 noundef -1) #10
  %11 = icmp sgt i32 %10, -1
  br i1 %11, label %.lr.ph, label %._crit_edge

.lr.ph:                                           ; preds = %6, %.lr.ph
  %12 = phi i32 [ %18, %.lr.ph ], [ %10, %6 ]
  %.015 = phi i32 [ %15, %.lr.ph ], [ 0, %6 ]
  %13 = sub i32 %12, %1
  %14 = trunc i32 %13 to i16
  %15 = add i32 %.015, 1
  %16 = sext i32 %.015 to i64
  %17 = getelementptr inbounds i16, ptr %9, i64 %16
  store i16 %14, ptr %17, align 2
  %18 = tail call i32 @bms_next_member(ptr noundef %0, i32 noundef %12) #10
  %19 = icmp sgt i32 %18, -1
  br i1 %19, label %.lr.ph, label %._crit_edge, !llvm.loop !31

._crit_edge:                                      ; preds = %.lr.ph, %6
  ret ptr %9
}